target datalayout = "e-m:e-p270:32:32-p271:32:32-p272:64:64-i64:64-i128:128-f80:128-n8:16:32:64-S128"
target triple = "x86_64-unknown-linux-gnu"

%"class.std::__cxx11::basic_string" = type { %"struct.std::__cxx11::basic_string<char>::_Alloc_hider", i64, %union.anon }
%"struct.std::__cxx11::basic_string<char>::_Alloc_hider" = type { ptr }
%union.anon = type { i64, [8 x i8] }
%"class.folly::Range" = type { ptr, ptr }
%"class.google::LogMessageFatal" = type { %"class.google::LogMessage" }
%"class.google::LogMessage" = type { ptr, ptr, %"struct.google::LogMessageTime" }
%"struct.google::LogMessageTime" = type { %struct.tm, i64, i32, i64 }
%struct.tm = type { i32, i32, i32, i32, i32, i32, i32, i32, i32, i64, ptr }
%"class.proxygen::HTTP1xCodec" = type <{ %"class.proxygen::HTTPCodec", %"class.std::__cxx11::basic_string", ptr, i64, i64, %"struct.proxygen::http_parser", ptr, %"class.std::unique_ptr", %"class.std::unique_ptr", %"class.std::unique_ptr.7", %"class.std::__cxx11::basic_string", %"class.folly::Range", %"class.std::__cxx11::basic_string", %"class.std::__cxx11::basic_string", %"class.std::__cxx11::basic_string", %"class.std::__cxx11::basic_string", %"class.std::__cxx11::basic_string", %"class.std::__cxx11::basic_string", %"struct.proxygen::HTTPHeaderSize", i8, i8, i8, i8, %"struct.std::pair", i32, [4 x i8] }>
%"class.proxygen::HTTPCodec" = type { ptr }
%"struct.proxygen::http_parser" = type { i8, i8, i8, i8, i32, i64, i16, i16, i16, i8, i8, ptr }
%"class.std::unique_ptr" = type { %"struct.std::__uniq_ptr_data" }
%"struct.std::__uniq_ptr_data" = type { %"class.std::__uniq_ptr_impl" }
%"class.std::__uniq_ptr_impl" = type { %"class.std::tuple" }
%"class.std::tuple" = type { %"struct.std::_Tuple_impl" }
%"struct.std::_Tuple_impl" = type { %"struct.std::_Head_base.6" }
%"struct.std::_Head_base.6" = type { ptr }
%"class.std::unique_ptr.7" = type { %"struct.std::__uniq_ptr_data.8" }
%"struct.std::__uniq_ptr_data.8" = type { %"class.std::__uniq_ptr_impl.9" }
%"class.std::__uniq_ptr_impl.9" = type { %"class.std::tuple.10" }
%"class.std::tuple.10" = type { %"struct.std::_Tuple_impl.11" }
%"struct.std::_Tuple_impl.11" = type { %"struct.std::_Head_base.14" }
%"struct.std::_Head_base.14" = type { ptr }
%"struct.proxygen::HTTPHeaderSize" = type { i32, i32, i32 }
%"struct.std::pair" = type { i8, %"class.std::__cxx11::basic_string" }
%"class.google::LogMessageVoidify" = type { i8 }
%"struct.google::CheckOpString" = type { ptr }
%"class.google::base::CheckOpMessageBuilder" = type { ptr }

@.str.2 = private unnamed_addr constant [135 x i8] c"generated/home/dtcxzyw/WorkSpace/Projects/compilers/llvm-opt-benchmark/bench/proxygen/proxygen/proxygen/lib/http/codec/HTTP1xCodec.cpp\00", align 1
@.str.61 = private unnamed_addr constant [32 x i8] c"Check failed: codec != nullptr \00", align 1
@.str.62 = private unnamed_addr constant [26 x i8] c"&codec->parser_ == parser\00", align 1
@_ZTISt9exception = external constant ptr

; Function Attrs: mustprogress uwtable
define linkonce_odr void @_ZN6google22MakeCheckOpValueStringIPN8proxygen11http_parserEEEvPSoRKT_(ptr noundef %os, ptr noundef nonnull align 8 dereferenceable(8) %v) #4 comdat {
entry:
  %os.addr = alloca ptr, align 8
  %v.addr = alloca ptr, align 8
  store ptr %os, ptr %os.addr, align 8
  store ptr %v, ptr %v.addr, align 8
  %0 = load ptr, ptr %os.addr, align 8
  %1 = load ptr, ptr %v.addr, align 8
  %2 = load ptr, ptr %1, align 8
  %call = call noundef nonnull align 8 dereferenceable(8) ptr @_ZNSolsEPKv(ptr noundef nonnull align 8 dereferenceable(8) %0, ptr noundef %2)
  ret void
}

; Function Attrs: mustprogress nounwind uwtable
define linkonce_odr noundef ptr @_ZN6google4base21CheckOpMessageBuilder7ForVar1Ev(ptr noundef nonnull align 8 dereferenceable(8) %this) #5 comdat align 2 {
entry:
  %this.addr = alloca ptr, align 8
  store ptr %this, ptr %this.addr, align 8
  %this1 = load ptr, ptr %this.addr, align 8
  %stream_ = getelementptr inbounds %"class.google::base::CheckOpMessageBuilder", ptr %this1, i32 0, i32 0
  %0 = load ptr, ptr %stream_, align 8
  ret ptr %0
}

; Function Attrs: mustprogress uwtable
define linkonce_odr noundef ptr @_ZN6google17MakeCheckOpStringIPN8proxygen11http_parserES3_EEPNSt7__cxx1112basic_stringIcSt11char_traitsIcESaIcEEERKT_RKT0_PKc(ptr noundef nonnull align 8 dereferenceable(8) %v1, ptr noundef nonnull align 8 dereferenceable(8) %v2, ptr noundef %exprtext) #4 comdat personality ptr @__gxx_personality_v0 {
entry:
  %v1.addr = alloca ptr, align 8
  %v2.addr = alloca ptr, align 8
  %exprtext.addr = alloca ptr, align 8
  %comb = alloca %"class.google::base::CheckOpMessageBuilder", align 8
  %exn.slot = alloca ptr, align 8
  %ehselector.slot = alloca i32, align 4
  store ptr %v1, ptr %v1.addr, align 8
  store ptr %v2, ptr %v2.addr, align 8
  store ptr %exprtext, ptr %exprtext.addr, align 8
  %0 = load ptr, ptr %exprtext.addr, align 8
  call void @_ZN6google4base21CheckOpMessageBuilderC1EPKc(ptr noundef nonnull align 8 dereferenceable(8) %comb, ptr noundef %0)
  %call = call noundef ptr @_ZN6google4base21CheckOpMessageBuilder7ForVar1Ev(ptr noundef nonnull align 8 dereferenceable(8) %comb)
  %1 = load ptr, ptr %v1.addr, align 8
  invoke void @_ZN6google22MakeCheckOpValueStringIPN8proxygen11http_parserEEEvPSoRKT_(ptr noundef %call, ptr noundef nonnull align 8 dereferenceable(8) %1)
          to label %invoke.cont unwind label %lpad

invoke.cont:                                      ; preds = %entry
  %call2 = invoke noundef ptr @_ZN6google4base21CheckOpMessageBuilder7ForVar2Ev(ptr noundef nonnull align 8 dereferenceable(8) %comb)
          to label %invoke.cont1 unwind label %lpad

invoke.cont1:                                     ; preds = %invoke.cont
  %2 = load ptr, ptr %v2.addr, align 8
  invoke void @_ZN6google22MakeCheckOpValueStringIPN8proxygen11http_parserEEEvPSoRKT_(ptr noundef %call2, ptr noundef nonnull align 8 dereferenceable(8) %2)
          to label %invoke.cont3 unwind label %lpad

invoke.cont3:                                     ; preds = %invoke.cont1
  %call5 = invoke noundef ptr @_ZN6google4base21CheckOpMessageBuilder9NewStringB5cxx11Ev(ptr noundef nonnull align 8 dereferenceable(8) %comb)
          to label %invoke.cont4 unwind label %lpad

invoke.cont4:                                     ; preds = %invoke.cont3
  call void @_ZN6google4base21CheckOpMessageBuilderD1Ev(ptr noundef nonnull align 8 dereferenceable(8) %comb) #3
  ret ptr %call5

lpad:                                             ; preds = %invoke.cont3, %invoke.cont1, %invoke.cont, %entry
  %3 = landingpad { ptr, i32 }
          cleanup
  %4 = extractvalue { ptr, i32 } %3, 0
  store ptr %4, ptr %exn.slot, align 8
  %5 = extractvalue { ptr, i32 } %3, 1
  store i32 %5, ptr %ehselector.slot, align 4
  call void @_ZN6google4base21CheckOpMessageBuilderD1Ev(ptr noundef nonnull align 8 dereferenceable(8) %comb) #3
  br label %eh.resume

eh.resume:                                        ; preds = %lpad
  %exn = load ptr, ptr %exn.slot, align 8
  %sel = load i32, ptr %ehselector.slot, align 4
  %lpad.val = insertvalue { ptr, i32 } poison, ptr %exn, 0
  %lpad.val6 = insertvalue { ptr, i32 } %lpad.val, i32 %sel, 1
  resume { ptr, i32 } %lpad.val6
}

; Function Attrs: mustprogress nounwind uwtable
define linkonce_odr noundef zeroext i1 @_ZNK6google13CheckOpStringcvbEv(ptr noundef nonnull align 8 dereferenceable(8) %this) #5 comdat align 2 {
entry:
  %this.addr = alloca ptr, align 8
  store ptr %this, ptr %this.addr, align 8
  %this1 = load ptr, ptr %this.addr, align 8
  %str_ = getelementptr inbounds %"struct.google::CheckOpString", ptr %this1, i32 0, i32 0
  %0 = load ptr, ptr %str_, align 8
  %cmp = icmp ne ptr %0, null
  ret i1 %cmp
}

; Function Attrs: mustprogress nounwind uwtable
define linkonce_odr void @_ZN6google13CheckOpStringC2EPNSt7__cxx1112basic_stringIcSt11char_traitsIcESaIcEEE(ptr noundef nonnull align 8 dereferenceable(8) %this, ptr noundef %str) unnamed_addr #5 comdat align 2 {
entry:
  %this.addr = alloca ptr, align 8
  %str.addr = alloca ptr, align 8
  store ptr %this, ptr %this.addr, align 8
  store ptr %str, ptr %str.addr, align 8
  %this1 = load ptr, ptr %this.addr, align 8
  %str_ = getelementptr inbounds %"struct.google::CheckOpString", ptr %this1, i32 0, i32 0
  %0 = load ptr, ptr %str.addr, align 8
  store ptr %0, ptr %str_, align 8
  ret void
}

; Function Attrs: mustprogress uwtable
define linkonce_odr noundef ptr @_ZN6google12Check_EQImplIPN8proxygen11http_parserES3_EEPNSt7__cxx1112basic_stringIcSt11char_traitsIcESaIcEEERKT_RKT0_PKc(ptr noundef nonnull align 8 dereferenceable(8) %v1, ptr noundef nonnull align 8 dereferenceable(8) %v2, ptr noundef %exprtext) #4 comdat {
entry:
  %retval = alloca ptr, align 8
  %v1.addr = alloca ptr, align 8
  %v2.addr = alloca ptr, align 8
  %exprtext.addr = alloca ptr, align 8
  store ptr %v1, ptr %v1.addr, align 8
  store ptr %v2, ptr %v2.addr, align 8
  store ptr %exprtext, ptr %exprtext.addr, align 8
  %0 = load ptr, ptr %v1.addr, align 8
  %1 = load ptr, ptr %0, align 8
  %2 = load ptr, ptr %v2.addr, align 8
  %3 = load ptr, ptr %2, align 8
  %cmp = icmp eq ptr %1, %3
  %lnot = xor i1 %cmp, true
  %lnot1 = xor i1 %lnot, true
  br i1 %lnot1, label %if.then, label %if.else

if.then:                                          ; preds = %entry
  store ptr null, ptr %retval, align 8
  br label %return

if.else:                                          ; preds = %entry
  %4 = load ptr, ptr %v1.addr, align 8
  %5 = load ptr, ptr %v2.addr, align 8
  %6 = load ptr, ptr %exprtext.addr, align 8
  %call = call noundef ptr @_ZN6google17MakeCheckOpStringIPN8proxygen11http_parserES3_EEPNSt7__cxx1112basic_stringIcSt11char_traitsIcESaIcEEERKT_RKT0_PKc(ptr noundef nonnull align 8 dereferenceable(8) %4, ptr noundef nonnull align 8 dereferenceable(8) %5, ptr noundef %6)
  store ptr %call, ptr %retval, align 8
  br label %return

return:                                           ; preds = %if.else, %if.then
  %7 = load ptr, ptr %retval, align 8
  ret ptr %7
}

; Function Attrs: mustprogress nounwind uwtable
define linkonce_odr noundef nonnull align 8 dereferenceable(8) ptr @_ZN6google21GetReferenceableValueIPN8proxygen11http_parserEEERKT_S6_(ptr noundef nonnull align 8 dereferenceable(8) %t) #5 comdat {
entry:
  %t.addr = alloca ptr, align 8
  store ptr %t, ptr %t.addr, align 8
  %0 = load ptr, ptr %t.addr, align 8
  ret ptr %0
}

; Function Attrs: mustprogress nounwind uwtable
define linkonce_odr void @_ZN6google17LogMessageVoidifyanERSo(ptr noundef nonnull align 1 dereferenceable(1) %this, ptr noundef nonnull align 8 dereferenceable(8) %0) #5 comdat align 2 {
entry:
  %this.addr = alloca ptr, align 8
  %.addr = alloca ptr, align 8
  store ptr %this, ptr %this.addr, align 8
  store ptr %0, ptr %.addr, align 8
  ret void
}

; Function Attrs: mustprogress nounwind uwtable
define linkonce_odr void @_ZN6google17LogMessageVoidifyC2Ev(ptr noundef nonnull align 1 dereferenceable(1) %this) unnamed_addr #5 comdat align 2 {
entry:
  %this.addr = alloca ptr, align 8
  store ptr %this, ptr %this.addr, align 8
  ret void
}

; Function Attrs: mustprogress uwtable
define noundef i32 @_ZN8proxygen11HTTP1xCodec16onMessageBeginCBEPNS_11http_parserE(ptr noundef %parser) #4 align 2 personality ptr @__gxx_personality_v0 {
entry:
  %retval = alloca i32, align 4
  %parser.addr = alloca ptr, align 8
  %codec = alloca ptr, align 8
  %ref.tmp = alloca %"class.google::LogMessageVoidify", align 1
  %ref.tmp1 = alloca %"class.google::LogMessageFatal", align 8
  %cleanup.cond = alloca i1, align 1
  %exn.slot = alloca ptr, align 8
  %ehselector.slot = alloca i32, align 4
  %_result = alloca %"struct.google::CheckOpString", align 8
  %ref.tmp11 = alloca ptr, align 8
  %ref.tmp17 = alloca %"class.google::LogMessageFatal", align 8
  %ex = alloca ptr, align 8
  store ptr %parser, ptr %parser.addr, align 8
  %0 = load ptr, ptr %parser.addr, align 8
  %data = getelementptr inbounds %"struct.proxygen::http_parser", ptr %0, i32 0, i32 11
  %1 = load ptr, ptr %data, align 8
  store ptr %1, ptr %codec, align 8
  br label %while.cond

while.cond:                                       ; preds = %cleanup.done, %entry
  br i1 false, label %while.body, label %while.end

while.body:                                       ; preds = %while.cond
  %2 = load ptr, ptr %codec, align 8
  %cmp = icmp ne ptr %2, null
  %lnot = xor i1 %cmp, true
  store i1 false, ptr %cleanup.cond, align 1
  br i1 %lnot, label %cond.false, label %cond.true

cond.true:                                        ; preds = %while.body
  br label %cond.end

cond.false:                                       ; preds = %while.body
  call void @_ZN6google17LogMessageVoidifyC2Ev(ptr noundef nonnull align 1 dereferenceable(1) %ref.tmp)
  call void @_ZN6google15LogMessageFatalC1EPKci(ptr noundef nonnull align 8 dereferenceable(96) %ref.tmp1, ptr noundef @.str.2, i32 noundef 1327)
  store i1 true, ptr %cleanup.cond, align 1
  %call = invoke noundef nonnull align 8 dereferenceable(8) ptr @_ZN6google10LogMessage6streamEv(ptr noundef nonnull align 8 dereferenceable(96) %ref.tmp1)
          to label %invoke.cont unwind label %lpad

invoke.cont:                                      ; preds = %cond.false
  %call3 = invoke noundef nonnull align 8 dereferenceable(8) ptr @_ZStlsISt11char_traitsIcEERSt13basic_ostreamIcT_ES5_PKc(ptr noundef nonnull align 8 dereferenceable(8) %call, ptr noundef @.str.61)
          to label %invoke.cont2 unwind label %lpad

invoke.cont2:                                     ; preds = %invoke.cont
  invoke void @_ZN6google17LogMessageVoidifyanERSo(ptr noundef nonnull align 1 dereferenceable(1) %ref.tmp, ptr noundef nonnull align 8 dereferenceable(8) %call3)
          to label %invoke.cont4 unwind label %lpad

invoke.cont4:                                     ; preds = %invoke.cont2
  br label %cond.end

cond.end:                                         ; preds = %invoke.cont4, %cond.true
  %cleanup.is_active = load i1, ptr %cleanup.cond, align 1
  br i1 %cleanup.is_active, label %cleanup.action, label %cleanup.done

cleanup.action:                                   ; preds = %cond.end
  call void @_ZN6google15LogMessageFatalD1Ev(ptr noundef nonnull align 8 dereferenceable(96) %ref.tmp1) #20
  unreachable

lpad:                                             ; preds = %invoke.cont2, %invoke.cont, %cond.false
  %3 = landingpad { ptr, i32 }
          cleanup
  %4 = extractvalue { ptr, i32 } %3, 0
  store ptr %4, ptr %exn.slot, align 8
  %5 = extractvalue { ptr, i32 } %3, 1
  store i32 %5, ptr %ehselector.slot, align 4
  %cleanup.is_active5 = load i1, ptr %cleanup.cond, align 1
  br i1 %cleanup.is_active5, label %cleanup.action6, label %cleanup.done7

6:                                                ; No predecessors!
  br label %cleanup.done

cleanup.done:                                     ; preds = %6, %cond.end
  br label %while.cond, !llvm.loop !6

cleanup.action6:                                  ; preds = %lpad
  call void @_ZN6google15LogMessageFatalD1Ev(ptr noundef nonnull align 8 dereferenceable(96) %ref.tmp1) #20
  unreachable

7:                                                ; No predecessors!
  br label %cleanup.done7

cleanup.done7:                                    ; preds = %7, %lpad
  br label %eh.resume

while.end:                                        ; preds = %while.cond
  br label %while.cond8

while.cond8:                                      ; preds = %while.end21, %while.end
  br i1 false, label %while.body9, label %while.end22

while.body9:                                      ; preds = %while.cond8
  br label %while.cond10

while.cond10:                                     ; preds = %while.body9
  %8 = load ptr, ptr %codec, align 8
  %parser_ = getelementptr inbounds %"class.proxygen::HTTP1xCodec", ptr %8, i32 0, i32 5
  store ptr %parser_, ptr %ref.tmp11, align 8
  %call12 = call noundef nonnull align 8 dereferenceable(8) ptr @_ZN6google21GetReferenceableValueIPN8proxygen11http_parserEEERKT_S6_(ptr noundef nonnull align 8 dereferenceable(8) %ref.tmp11)
  %call13 = call noundef nonnull align 8 dereferenceable(8) ptr @_ZN6google21GetReferenceableValueIPN8proxygen11http_parserEEERKT_S6_(ptr noundef nonnull align 8 dereferenceable(8) %parser.addr)
  %call14 = call noundef ptr @_ZN6google12Check_EQImplIPN8proxygen11http_parserES3_EEPNSt7__cxx1112basic_stringIcSt11char_traitsIcESaIcEEERKT_RKT0_PKc(ptr noundef nonnull align 8 dereferenceable(8) %call12, ptr noundef nonnull align 8 dereferenceable(8) %call13, ptr noundef @.str.62)
  call void @_ZN6google13CheckOpStringC2EPNSt7__cxx1112basic_stringIcSt11char_traitsIcESaIcEEE(ptr noundef nonnull align 8 dereferenceable(8) %_result, ptr noundef %call14)
  %call15 = call noundef zeroext i1 @_ZNK6google13CheckOpStringcvbEv(ptr noundef nonnull align 8 dereferenceable(8) %_result)
  br i1 %call15, label %while.body16, label %while.end21

while.body16:                                     ; preds = %while.cond10
  call void @_ZN6google15LogMessageFatalC1EPKciRKNS_13CheckOpStringE(ptr noundef nonnull align 8 dereferenceable(96) %ref.tmp17, ptr noundef @.str.2, i32 noundef 1328, ptr noundef nonnull align 8 dereferenceable(8) %_result)
  %call20 = invoke noundef nonnull align 8 dereferenceable(8) ptr @_ZN6google10LogMessage6streamEv(ptr noundef nonnull align 8 dereferenceable(96) %ref.tmp17)
          to label %invoke.cont19 unwind label %lpad18

invoke.cont19:                                    ; preds = %while.body16
  call void @_ZN6google15LogMessageFatalD1Ev(ptr noundef nonnull align 8 dereferenceable(96) %ref.tmp17) #20
  unreachable

lpad18:                                           ; preds = %while.body16
  %9 = landingpad { ptr, i32 }
          cleanup
  %10 = extractvalue { ptr, i32 } %9, 0
  store ptr %10, ptr %exn.slot, align 8
  %11 = extractvalue { ptr, i32 } %9, 1
  store i32 %11, ptr %ehselector.slot, align 4
  call void @_ZN6google15LogMessageFatalD1Ev(ptr noundef nonnull align 8 dereferenceable(96) %ref.tmp17) #20
  unreachable

12:                                               ; No predecessors!
  br label %eh.resume

while.end21:                                      ; preds = %while.cond10
  br label %while.cond8, !llvm.loop !7

while.end22:                                      ; preds = %while.cond8
  %13 = load ptr, ptr %codec, align 8
  %call25 = invoke noundef i32 @_ZN8proxygen11HTTP1xCodec14onMessageBeginEv(ptr noundef nonnull align 8 dereferenceable(428) %13)
          to label %invoke.cont24 unwind label %lpad23

invoke.cont24:                                    ; preds = %while.end22
  store i32 %call25, ptr %retval, align 4
  br label %return

lpad23:                                           ; preds = %while.end22
  %14 = landingpad { ptr, i32 }
          catch ptr @_ZTISt9exception
  %15 = extractvalue { ptr, i32 } %14, 0
  store ptr %15, ptr %exn.slot, align 8
  %16 = extractvalue { ptr, i32 } %14, 1
  store i32 %16, ptr %ehselector.slot, align 4
  br label %catch.dispatch

catch.dispatch:                                   ; preds = %lpad23
  %sel = load i32, ptr %ehselector.slot, align 4
  %17 = call i32 @llvm.eh.typeid.for(ptr @_ZTISt9exception) #3
  %matches = icmp eq i32 %sel, %17
  br i1 %matches, label %catch, label %eh.resume

catch:                                            ; preds = %catch.dispatch
  %exn = load ptr, ptr %exn.slot, align 8
  %18 = call ptr @__cxa_begin_catch(ptr %exn) #3
  store ptr %18, ptr %ex, align 8
  %19 = load ptr, ptr %codec, align 8
  %20 = load ptr, ptr %ex, align 8
  %vtable = load ptr, ptr %20, align 8
  %vfn = getelementptr inbounds ptr, ptr %vtable, i64 2
  %21 = load ptr, ptr %vfn, align 8
  %call26 = call noundef ptr %21(ptr noundef nonnull align 8 dereferenceable(8) %20) #3
  invoke void @_ZN8proxygen11HTTP1xCodec13onParserErrorEPKc(ptr noundef nonnull align 8 dereferenceable(428) %19, ptr noundef %call26)
          to label %invoke.cont28 unwind label %lpad27

invoke.cont28:                                    ; preds = %catch
  store i32 1, ptr %retval, align 4
  call void @__cxa_end_catch()
  br label %return

lpad27:                                           ; preds = %catch
  %22 = landingpad { ptr, i32 }
          cleanup
  %23 = extractvalue { ptr, i32 } %22, 0
  store ptr %23, ptr %exn.slot, align 8
  %24 = extractvalue { ptr, i32 } %22, 1
  store i32 %24, ptr %ehselector.slot, align 4
  invoke void @__cxa_end_catch()
          to label %invoke.cont29 unwind label %terminate.lpad

invoke.cont29:                                    ; preds = %lpad27
  br label %eh.resume

try.cont:                                         ; No predecessors!
  call void @llvm.trap()
  unreachable

return:                                           ; preds = %invoke.cont28, %invoke.cont24
  %25 = load i32, ptr %retval, align 4
  ret i32 %25

eh.resume:                                        ; preds = %invoke.cont29, %catch.dispatch, %12, %cleanup.done7
  %exn30 = load ptr, ptr %exn.slot, align 8
  %sel31 = load i32, ptr %ehselector.slot, align 4
  %lpad.val = insertvalue { ptr, i32 } poison, ptr %exn30, 0
  %lpad.val32 = insertvalue { ptr, i32 } %lpad.val, i32 %sel31, 1
  resume { ptr, i32 } %lpad.val32

terminate.lpad:                                   ; preds = %lpad27
  %26 = landingpad { ptr, i32 }
          catch ptr null
  %27 = extractvalue { ptr, i32 } %26, 0
  call void @__clang_call_terminate(ptr %27) #20
  unreachable
}